; Function Attrs: nounwind uwtable
define internal void @snmp_users_authPassword_tostr_cb(ptr noundef readonly captures(none) %0, ptr noundef writeonly captures(none) initializes((0, 8)) %1, ptr noundef writeonly captures(none) initializes((0, 4)) %2, ptr readnone captures(none) %3, ptr readnone captures(none) %4) #0 {
  %6 = getelementptr inbounds nuw i8, ptr %0, i64 24
  %7 = load ptr, ptr %6, align 8
  %.not = icmp eq ptr %7, null
  br i1 %.not, label %14, label %8

8:                                                ; preds = %5
  %9 = getelementptr inbounds nuw i8, ptr %0, i64 32
  %10 = load i32, ptr %9, align 8
  %11 = tail call ptr @uat_esc(ptr noundef nonnull %7, i32 noundef %10) #11
  store ptr %11, ptr %1, align 8
  %12 = tail call i64 @strlen(ptr noundef nonnull dereferenceable(1) %11) #13
  %13 = trunc i64 %12 to i32
  br label %16

14:                                               ; preds = %5
  %15 = tail call noalias ptr @g_strdup(ptr noundef nonnull @.str.472) #11
  store ptr %15, ptr %1, align 8
  br label %16

16:                                               ; preds = %14, %8
  %storemerge = phi i32 [ 0, %14 ], [ %13, %8 ]
  store i32 %storemerge, ptr %2, align 4
  ret void
}